ccopy_reg
_reconstructor
p0
(c__main__
Cache
p1
c__builtin__
object
p2
Ntp3
Rp4
(dp5
S'status'
p6
S'unpublished'
p7
sS'title'
p8
S'CentOS 6: Install SBT'
p9
sS'url'
p10
S'http://lancegatlin.org/tech/?p=266'
p11
sS'checksum'
p12
S'41f4573d04ff2583fc8a14e155963baa'
p13
sS'created_at'
p14
I1363340764
sS'doctype'
p15
S'article'
p16
sS'updated_at'
p17
I1402700047
sS'post_type'
p18
S'post'
p19
sS'media'
p20
(dp21
sS'id'
p22
I266
sS'categories'
p23
(lp24
S'scala'
p25
aS'centos'
p26
asb.