ccopy_reg
_reconstructor
p0
(c__main__
Cache
p1
c__builtin__
object
p2
Ntp3
Rp4
(dp5
S'status'
p6
S'unpublished'
p7
sS'title'
p8
S'CentOS 6: Install IntelliJ IDEA'
p9
sS'url'
p10
S'http://lancegatlin.org/tech/?p=225'
p11
sS'checksum'
p12
S'eab6cb31037bc3385fdce7816a276336'
p13
sS'created_at'
p14
I1363292058
sS'doctype'
p15
S'article'
p16
sS'updated_at'
p17
I1402255064
sS'post_type'
p18
S'post'
p19
sS'media'
p20
(dp21
S'centos-6-install-intellij-idea//intellij-idea-complete-installation.png'
p22
g0
(c__main__
Media
p23
g2
Ntp24
Rp25
(dp26
S'url'
p27
S'http://lancegatlin.org/tech/wp-content/uploads/sites/3/2014/06/intellij-idea-complete-installation.png'
p28
sS'checksum'
p29
S'aabf2a2f35d122b4b1c3a7e9f35c5c7a'
p30
sS'filename'
p31
S'/home/lgatlin/Code/techblog/posts/centos-6-install-intellij-idea//intellij-idea-complete-installation.png'
p32
sbsS'centos-6-install-intellij-idea//intellij-idea-welcome.png'
p33
g0
(g23
g2
Ntp34
Rp35
(dp36
g27
S'http://lancegatlin.org/tech/wp-content/uploads/sites/3/2014/06/intellij-idea-welcome.png'
p37
sg29
S'5da753a0ac8aed644dd8f8f7728e2453'
p38
sg31
S'/home/lgatlin/Code/techblog/posts/centos-6-install-intellij-idea//intellij-idea-welcome.png'
p39
sbssS'id'
p40
I225
sS'categories'
p41
(lp42
S'centos6'
p43
aS'intellij_idea'
p44
asb.