ccopy_reg
_reconstructor
p0
(c__main__
Cache
p1
c__builtin__
object
p2
Ntp3
Rp4
(dp5
S'status'
p6
S'unpublished'
p7
sS'title'
p8
S'CentOS 6: Install MongoDB'
p9
sS'url'
p10
S'http://lancegatlin.org/tech/?p=444'
p11
sS'checksum'
p12
S'83f2cf45326508f09a04cca47c89fa52'
p13
sS'created_at'
p14
I1363976373
sS'doctype'
p15
S'article'
p16
sS'updated_at'
p17
I1401403216
sS'post_type'
p18
S'post'
p19
sS'media'
p20
(dp21
sS'id'
p22
I444
sS'categories'
p23
(lp24
S'centos6'
p25
aS'mongodb'
p26
asb.