ccopy_reg
_reconstructor
p0
(c__main__
Cache
p1
c__builtin__
object
p2
Ntp3
Rp4
(dp5
S'status'
p6
S'unpublished'
p7
sS'title'
p8
S'CentOS 6: Install EPEL yum repository'
p9
sS'url'
p10
S'http://lancegatlin.org/tech/?p=168'
p11
sS'checksum'
p12
S'7d020bae37d599940128ccd52f532963'
p13
sS'created_at'
p14
I1363195130
sS'doctype'
p15
S'article'
p16
sS'updated_at'
p17
I1402696854
sS'post_type'
p18
S'post'
p19
sS'media'
p20
(dp21
sS'id'
p22
I168
sS'categories'
p23
(lp24
S'centos6'
p25
asb.