ccopy_reg
_reconstructor
p0
(c__main__
Cache
p1
c__builtin__
object
p2
Ntp3
Rp4
(dp5
S'status'
p6
S'unpublished'
p7
sS'title'
p8
S'IntelliJ IDEA: Configure for Scala and SBT'
p9
sS'url'
p10
S'http://lancegatlin.org/tech/?p=1523'
p11
sS'checksum'
p12
S'904c833081cb413226a6d6d9ba1338ca'
p13
sS'created_at'
p14
I1402191717
sS'doctype'
p15
S'article'
p16
sS'updated_at'
p17
I1402263670
sS'post_type'
p18
S'post'
p19
sS'media'
p20
(dp21
S'intellij_idea-configure-for-scala-and-sbt//intellij_idea_plugin_search_box.png'
p22
g0
(c__main__
Media
p23
g2
Ntp24
Rp25
(dp26
S'url'
p27
S'http://lancegatlin.org/tech/wp-content/uploads/sites/3/2014/06/intellij_idea_plugin_search_box.png'
p28
sS'checksum'
p29
S'dae03e7d3a5c73c066af764501c2a1f8'
p30
sS'filename'
p31
S'/home/lgatlin/Code/techblog/posts/intellij_idea-configure-for-scala-and-sbt//intellij_idea_plugin_search_box.png'
p32
sbsS'intellij_idea-configure-for-scala-and-sbt//intellij_idea_sbt_play.png'
p33
g0
(g23
g2
Ntp34
Rp35
(dp36
g27
S'http://lancegatlin.org/tech/wp-content/uploads/sites/3/2014/06/intellij_idea_sbt_play.png'
p37
sg29
S'35ceb6ebc43b1a55d77600e3235d3dae'
p38
sg31
S'/home/lgatlin/Code/techblog/posts/intellij_idea-configure-for-scala-and-sbt//intellij_idea_sbt_play.png'
p39
sbsS'intellij_idea-configure-for-scala-and-sbt//intellij_idea_download_and_install.png'
p40
g0
(g23
g2
Ntp41
Rp42
(dp43
g27
S'http://lancegatlin.org/tech/wp-content/uploads/sites/3/2014/06/intellij_idea_download_and_install.png'
p44
sg29
S'f7b864638c2f3b374df9ad6fa74b6772'
p45
sg31
S'/home/lgatlin/Code/techblog/posts/intellij_idea-configure-for-scala-and-sbt//intellij_idea_download_and_install.png'
p46
sbsS'intellij_idea-configure-for-scala-and-sbt//intellij_idea_sbt_command-line.png'
p47
g0
(g23
g2
Ntp48
Rp49
(dp50
g27
S'http://lancegatlin.org/tech/wp-content/uploads/sites/3/2014/06/intellij_idea_sbt_command-line.png'
p51
sg29
S'b5dfb660c7f617c2723f66ecfdd821d1'
p52
sg31
S'/home/lgatlin/Code/techblog/posts/intellij_idea-configure-for-scala-and-sbt//intellij_idea_sbt_command-line.png'
p53
sbsS'intellij_idea-configure-for-scala-and-sbt//intellij_idea_plugins.png'
p54
g0
(g23
g2
Ntp55
Rp56
(dp57
g27
S'http://lancegatlin.org/tech/wp-content/uploads/sites/3/2014/06/intellij_idea_plugins.png'
p58
sg29
S'49a2403dabf27723d660022cc754e3a2'
p59
sg31
S'/home/lgatlin/Code/techblog/posts/intellij_idea-configure-for-scala-and-sbt//intellij_idea_plugins.png'
p60
sbsS'intellij_idea-configure-for-scala-and-sbt//intellij_idea_browse_repositories.png'
p61
g0
(g23
g2
Ntp62
Rp63
(dp64
g27
S'http://lancegatlin.org/tech/wp-content/uploads/sites/3/2014/06/intellij_idea_browse_repositories.png'
p65
sg29
S'd3b859afd2a80837ddcdd624a299c096'
p66
sg31
S'/home/lgatlin/Code/techblog/posts/intellij_idea-configure-for-scala-and-sbt//intellij_idea_browse_repositories.png'
p67
sbsS'intellij_idea-configure-for-scala-and-sbt//intellij_idea_configure.png'
p68
g0
(g23
g2
Ntp69
Rp70
(dp71
g27
S'http://lancegatlin.org/tech/wp-content/uploads/sites/3/2014/06/intellij_idea_configure.png'
p72
sg29
S'db4533f209fbdd1a4bcbac5da95830bd'
p73
sg31
S'/home/lgatlin/Code/techblog/posts/intellij_idea-configure-for-scala-and-sbt//intellij_idea_configure.png'
p74
sbsS'intellij_idea-configure-for-scala-and-sbt//intellij_idea_sbt_console.png'
p75
g0
(g23
g2
Ntp76
Rp77
(dp78
g27
S'http://lancegatlin.org/tech/wp-content/uploads/sites/3/2014/06/intellij_idea_sbt_console.png'
p79
sg29
S'd4547f331b466be7c194c91104b72fe5'
p80
sg31
S'/home/lgatlin/Code/techblog/posts/intellij_idea-configure-for-scala-and-sbt//intellij_idea_sbt_console.png'
p81
sbssS'id'
p82
I1523
sS'categories'
p83
(lp84
S'intellij_idea'
p85
aS'scala'
p86
aS'sbt'
p87
asb.