ccopy_reg
_reconstructor
p0
(c__main__
Cache
p1
c__builtin__
object
p2
Ntp3
Rp4
(dp5
S'status'
p6
S'unpublished'
p7
sS'title'
p8
S'JVM: Memory Settings'
p9
sS'url'
p10
S'http://lancegatlin.org/tech/?p=1111'
p11
sS'checksum'
p12
S'd2c365b6bddbb234d720befde69a0fbc'
p13
sS'created_at'
p14
I1401187320
sS'doctype'
p15
S'article'
p16
sS'updated_at'
p17
I1401296219
sS'post_type'
p18
S'post'
p19
sS'media'
p20
(dp21
sS'id'
p22
I1111
sS'categories'
p23
(lp24
S'jvm'
p25
aS'java'
p26
asb.