ccopy_reg
_reconstructor
p0
(c__main__
Cache
p1
c__builtin__
object
p2
Ntp3
Rp4
(dp5
S'status'
p6
S'unpublished'
p7
sS'title'
p8
S'Linux: Search and replace in files'
p9
sS'url'
p10
S'http://lancegatlin.org/tech/?p=316'
p11
sS'checksum'
p12
S'7763ef8de1fa106a95104e7a2b0d0360'
p13
sS'created_at'
p14
I1363433914
sS'doctype'
p15
S'article'
p16
sS'updated_at'
p17
I1401404266
sS'post_type'
p18
S'post'
p19
sS'media'
p20
(dp21
sS'id'
p22
I316
sS'categories'
p23
(lp24
S'linux'
p25
asb.