ccopy_reg
_reconstructor
p0
(c__main__
Cache
p1
c__builtin__
object
p2
Ntp3
Rp4
(dp5
S'status'
p6
S'unpublished'
p7
sS'title'
p8
S'MongoDB: Get a random record'
p9
sS'url'
p10
S'http://lancegatlin.org/tech/?p=1407'
p11
sS'checksum'
p12
S'bb05342a6c773f613ee1506d0547ddeb'
p13
sS'created_at'
p14
I1402146149
sS'doctype'
p15
S'article'
p16
sS'updated_at'
p17
I1402174416
sS'post_type'
p18
S'post'
p19
sS'media'
p20
(dp21
sS'id'
p22
I1407
sS'categories'
p23
(lp24
S'mongodb'
p25
asb.