ccopy_reg
_reconstructor
p0
(c__main__
Cache
p1
c__builtin__
object
p2
Ntp3
Rp4
(dp5
S'status'
p6
S'unpublished'
p7
sS'title'
p8
S'SBT: Standard build.sbt for Scala'
p9
sS'url'
p10
S'http://lancegatlin.org/tech/?p=298'
p11
sS'checksum'
p12
S'681c7037fcd9990948fbc73e0a309644'
p13
sS'created_at'
p14
I1363371019
sS'doctype'
p15
S'article'
p16
sS'updated_at'
p17
I1402170716
sS'post_type'
p18
S'post'
p19
sS'media'
p20
(dp21
sS'id'
p22
I298
sS'categories'
p23
(lp24
S'sbt'
p25
aS'scala'
p26
asb.