ccopy_reg
_reconstructor
p0
(c__main__
Cache
p1
c__builtin__
object
p2
Ntp3
Rp4
(dp5
S'status'
p6
S'unpublished'
p7
sS'title'
p8
S'Scala: Collections of Futures'
p9
sS'url'
p10
S'http://lancegatlin.org/tech/?p=1251'
p11
sS'checksum'
p12
S'82aeca68de895691c505a0e836171596'
p13
sS'created_at'
p14
I1399794957
sS'doctype'
p15
S'article'
p16
sS'updated_at'
p17
I1401567799
sS'post_type'
p18
S'post'
p19
sS'media'
p20
(dp21
sS'id'
p22
I1251
sS'categories'
p23
(lp24
S'scala'
p25
asb.