ccopy_reg
_reconstructor
p0
(c__main__
Cache
p1
c__builtin__
object
p2
Ntp3
Rp4
(dp5
S'status'
p6
S'unpublished'
p7
sS'title'
p8
S'Scala: Cardinality prefix naming convention'
p9
sS'url'
p10
S'http://lancegatlin.org/tech/?p=1410'
p11
sS'checksum'
p12
S'ca9e2f96e824344f727b48072a494588'
p13
sS'created_at'
p14
I1401558303
sS'doctype'
p15
S'article'
p16
sS'updated_at'
p17
I1402179390
sS'post_type'
p18
S'post'
p19
sS'media'
p20
(dp21
sS'id'
p22
I1410
sS'categories'
p23
(lp24
S'scala'
p25
asb.